(dp0
S'time'
p1
F1510093914.770361
sS'local'
p2
(dp3
S'/arquivo2.txt'
p4
(dp5
g1
I1509840315
sS'type'
p6
S'file'
p7
sS'level'
p8
I0
ssS'/arquivo1.txt'
p9
(dp10
g1
I1509812234
sg6
g7
sg8
I0
ssS'/diretorio/diretorio2'
p11
(dp12
g1
I1509840932
sg6
S'dir'
p13
sg8
I2
ssS'/diretorio'
p14
(dp15
g1
I1509840912
sg6
g13
sg8
I1
ssS'/diretorio/diretorio2/arquivo'
p16
(dp17
g1
I1509840932
sg6
g7
sg8
I2
ssS'/teste_conflito.txt'
p18
(dp19
g1
I1510092110
sg6
g7
sg8
I0
sssS'server'
p20
(dp21
V/arquivo2.txt
p22
(dp23
Vlevel
p24
I0
sVtype
p25
Vfile
p26
sVtime
p27
I1509840315
ssV/arquivo1.txt
p28
(dp29
Vlevel
p30
I0
sVtype
p31
Vfile
p32
sVtime
p33
I1509812234
ssV/diretorio/diretorio2
p34
(dp35
Vlevel
p36
I2
sVtype
p37
Vdir
p38
sVtime
p39
I1509840932
ssV/diretorio
p40
(dp41
Vlevel
p42
I1
sVtype
p43
Vdir
p44
sVtime
p45
I1509840912
ssV/diretorio/diretorio2/arquivo
p46
(dp47
Vlevel
p48
I2
sVtype
p49
Vfile
p50
sVtime
p51
I1509840932
ssV/teste_conflito.txt
p52
(dp53
Vlevel
p54
I0
sVtype
p55
Vfile
p56
sVtime
p57
I1510092110
sss.