(dp0
S'time'
p1
F1509801635.880849
sS'local'
p2
(dp3
S'/subdir'
p4
(dp5
g1
I1505588729
sS'type'
p6
S'dir'
p7
sS'level'
p8
I1
ssS'/subdir/arquivo2.txt'
p9
(dp10
g1
I1505588729
sg6
S'file'
p11
sg8
I1
ssS'/arquivo1.txt'
p12
(dp13
g1
I1509755769
sg6
g11
sg8
I0
ssS'/subdir2'
p14
(dp15
g1
I1509755621
sg6
g7
sg8
I1
ssS'/arquivo11.txt'
p16
(dp17
g1
I1509755649
sg6
g11
sg8
I0
ssS'/teste'
p18
(dp19
g1
I1509633418
sg6
g7
sg8
I1
sssS'server'
p20
(dp21
V/subdir
p22
(dp23
Vlevel
p24
I1
sVtype
p25
Vdir
p26
sVtime
p27
I1505588729
ssV/subdir/arquivo2.txt
p28
(dp29
Vlevel
p30
I1
sVtype
p31
Vfile
p32
sVtime
p33
I1505588729
ssV/teste
p34
(dp35
Vlevel
p36
I1
sVtype
p37
Vdir
p38
sVtime
p39
I1509633418
ssV/subdir2
p40
(dp41
Vlevel
p42
I1
sVtype
p43
Vdir
p44
sVtime
p45
I1509755621
ssV/arquivo11.txt
p46
(dp47
Vlevel
p48
I0
sVtype
p49
Vfile
p50
sVtime
p51
I1509755649
ssV/arquivo1.txt
p52
(dp53
Vlevel
p54
I0
sVtype
p55
Vfile
p56
sVtime
p57
I1509756066
sss.