(dp0
S'time'
p1
F1509841812.82813
sS'local'
p2
(dp3
S'/teste_conflito.txt_conflict-04-11-2017-22-32-34'
p4
(dp5
g1
I1509841954
sS'type'
p6
S'file'
p7
sS'level'
p8
I0
ssS'/arquivo2.txt'
p9
(dp10
g1
I1509840315
sg6
g7
sg8
I0
ssS'/arquivo1.txt'
p11
(dp12
g1
I1509812234
sg6
g7
sg8
I0
ssS'/diretorio/diretorio2'
p13
(dp14
g1
I1509840932
sg6
S'dir'
p15
sg8
I2
ssS'/diretorio'
p16
(dp17
g1
I1509840912
sg6
g15
sg8
I1
ssS'/diretorio/diretorio2/arquivo'
p18
(dp19
g1
I1509840932
sg6
g7
sg8
I2
ssS'/teste_conflito.txt'
p20
(dp21
g1
I1509841934
sg6
g7
sg8
I0
sssS'server'
p22
(dp23
V/teste_conflito.txt_conflict-04-11-2017-22-32-34
p24
(dp25
Vlevel
p26
I0
sVtype
p27
Vfile
p28
sVtime
p29
I1509841954
ssV/arquivo2.txt
p30
(dp31
Vlevel
p32
I0
sVtype
p33
Vfile
p34
sVtime
p35
I1509840315
ssV/arquivo1.txt
p36
(dp37
Vlevel
p38
I0
sVtype
p39
Vfile
p40
sVtime
p41
I1509812234
ssV/diretorio/diretorio2
p42
(dp43
Vlevel
p44
I2
sVtype
p45
Vdir
p46
sVtime
p47
I1509840932
ssV/diretorio
p48
(dp49
Vlevel
p50
I1
sVtype
p51
Vdir
p52
sVtime
p53
I1509840912
ssV/diretorio/diretorio2/arquivo
p54
(dp55
Vlevel
p56
I2
sVtype
p57
Vfile
p58
sVtime
p59
I1509840932
ssV/teste_conflito.txt
p60
(dp61
Vlevel
p62
I0
sVtype
p63
Vfile
p64
sVtime
p65
I1509841934
sss.