(dp0
S'time'
p1
F1509635086.704816
sS'local'
p2
(dp3
S'/subdir'
p4
(dp5
S'time'
p6
I1505588729
sS'type'
p7
S'dir'
p8
sS'level'
p9
I1
ssS'/subdir/arquivo2.txt'
p10
(dp11
g6
I1505588729
sg7
S'file'
p12
sg9
I1
ssS'/arquivo1.txt'
p13
(dp14
g6
I1505588717
sg7
g12
sg9
I0
ssS'/teste'
p15
(dp16
g6
I1509630307
sg7
g8
sg9
I1
sssS'server'
p17
(dp18
V/subdir
p19
(dp20
Vlevel
p21
I1
sVtype
p22
Vdir
p23
sVtime
p24
I1505588729
ssV/subdir/arquivo2.txt
p25
(dp26
Vlevel
p27
I1
sVtype
p28
Vfile
p29
sVtime
p30
I1505588729
ssV/arquivo1.txt
p31
(dp32
Vlevel
p33
I0
sVtype
p34
Vfile
p35
sVtime
p36
I1505588717
sss.